target datalayout = "e-m:e-p270:32:32-p271:32:32-p272:64:64-i64:64-i128:128-f80:128-n8:16:32:64-S128"
target triple = "x86_64-pc-linux-gnu"

%struct._zend_llist = type { ptr, ptr, i64, i64, ptr, i8, ptr }
%struct._zend_extension_version_info = type { i32, ptr }
%struct._zend_extension = type { ptr, ptr, ptr, ptr, ptr, ptr, ptr, ptr, ptr, ptr, ptr, ptr, ptr, ptr, ptr, ptr, ptr, ptr, ptr, ptr, ptr, ptr, ptr, ptr, ptr, i32 }
%struct._zend_llist_element = type { ptr, ptr, [1 x i8] }

@zend_extension_flags = dso_local global i32 0, align 4
@stderr = external global ptr, align 8
@.str.1 = private unnamed_addr constant [23 x i8] c"extension_version_info\00", align 1
@.str.2 = private unnamed_addr constant [24 x i8] c"_extension_version_info\00", align 1
@.str.3 = private unnamed_addr constant [21 x i8] c"zend_extension_entry\00", align 1
@.str.4 = private unnamed_addr constant [22 x i8] c"_zend_extension_entry\00", align 1
@.str.5 = private unnamed_addr constant [48 x i8] c"%s doesn't appear to be a valid Zend extension\0A\00", align 1
@.str.6 = private unnamed_addr constant [106 x i8] c"%s requires Zend Engine API version %d.\0AThe Zend Engine API version %d which is installed, is outdated.\0A\0A\00", align 1
@.str.7 = private unnamed_addr constant [147 x i8] c"%s requires Zend Engine API version %d.\0AThe Zend Engine API version %d which is installed, is newer.\0AContact %s at %s for a later version of %s.\0A\0A\00", align 1
@.str.8 = private unnamed_addr constant [17 x i8] c"API420240925,NTS\00", align 1
@.str.9 = private unnamed_addr constant [83 x i8] c"Cannot load %s - it was built with configuration %s, whereas running engine is %s\0A\00", align 1
@.str.10 = private unnamed_addr constant [40 x i8] c"Cannot load %s - it was already loaded\0A\00", align 1
@zend_extensions = dso_local global %struct._zend_llist zeroinitializer, align 8

; Function Attrs: nounwind uwtable
define dso_local void @zend_extension_dispatch_message(i32 noundef %0, ptr noundef %1) #0 {
  %3 = alloca i32, align 4
  %4 = alloca ptr, align 8
  store i32 %0, ptr %3, align 4, !tbaa !34
  store ptr %1, ptr %4, align 8, !tbaa !9
  %5 = load i32, ptr %3, align 4, !tbaa !34
  %6 = load ptr, ptr %4, align 8, !tbaa !9
  call void (ptr, ptr, i32, ...) @zend_llist_apply_with_arguments(ptr noundef @zend_extensions, ptr noundef @zend_extension_message_dispatcher, i32 noundef 2, i32 noundef %5, ptr noundef %6)
  ret void
}

; Function Attrs: nounwind uwtable
define dso_local void @zend_register_extension(ptr noundef %0, ptr noundef %1) #0 {
  %3 = alloca ptr, align 8
  %4 = alloca ptr, align 8
  %5 = alloca %struct._zend_extension, align 8
  store ptr %0, ptr %3, align 8, !tbaa !14
  store ptr %1, ptr %4, align 8, !tbaa !9
  call void @llvm.lifetime.start.p0(i64 208, ptr %5) #11
  %6 = load ptr, ptr %3, align 8, !tbaa !14
  call void @llvm.memcpy.p0.p0.i64(ptr align 8 %5, ptr align 8 %6, i64 208, i1 false), !tbaa.struct !33
  %7 = load ptr, ptr %4, align 8, !tbaa !9
  %8 = getelementptr inbounds nuw %struct._zend_extension, ptr %5, i32 0, i32 24
  store ptr %7, ptr %8, align 8, !tbaa !35
  call void @zend_extension_dispatch_message(i32 noundef 1, ptr noundef %5)
  call void @zend_llist_add_element(ptr noundef @zend_extensions, ptr noundef %5)
  %9 = getelementptr inbounds nuw %struct._zend_extension, ptr %5, i32 0, i32 14
  %10 = load ptr, ptr %9, align 8, !tbaa !36
  %11 = icmp ne ptr %10, null
  br i1 %11, label %12, label %15

12:                                               ; preds = %2
  %13 = load i32, ptr @zend_extension_flags, align 4, !tbaa !34
  %14 = or i32 %13, 1
  store i32 %14, ptr @zend_extension_flags, align 4, !tbaa !34
  br label %15

15:                                               ; preds = %12, %2
  %16 = getelementptr inbounds nuw %struct._zend_extension, ptr %5, i32 0, i32 15
  %17 = load ptr, ptr %16, align 8, !tbaa !37
  %18 = icmp ne ptr %17, null
  br i1 %18, label %19, label %22

19:                                               ; preds = %15
  %20 = load i32, ptr @zend_extension_flags, align 4, !tbaa !34
  %21 = or i32 %20, 2
  store i32 %21, ptr @zend_extension_flags, align 4, !tbaa !34
  br label %22

22:                                               ; preds = %19, %15
  %23 = getelementptr inbounds nuw %struct._zend_extension, ptr %5, i32 0, i32 10
  %24 = load ptr, ptr %23, align 8, !tbaa !38
  %25 = icmp ne ptr %24, null
  br i1 %25, label %26, label %29

26:                                               ; preds = %22
  %27 = load i32, ptr @zend_extension_flags, align 4, !tbaa !34
  %28 = or i32 %27, 4
  store i32 %28, ptr @zend_extension_flags, align 4, !tbaa !34
  br label %29

29:                                               ; preds = %26, %22
  %30 = getelementptr inbounds nuw %struct._zend_extension, ptr %5, i32 0, i32 18
  %31 = load ptr, ptr %30, align 8, !tbaa !39
  %32 = icmp ne ptr %31, null
  br i1 %32, label %33, label %36

33:                                               ; preds = %29
  %34 = load i32, ptr @zend_extension_flags, align 4, !tbaa !34
  %35 = or i32 %34, 8
  store i32 %35, ptr @zend_extension_flags, align 4, !tbaa !34
  br label %36

36:                                               ; preds = %33, %29
  %37 = getelementptr inbounds nuw %struct._zend_extension, ptr %5, i32 0, i32 19
  %38 = load ptr, ptr %37, align 8, !tbaa !40
  %39 = icmp ne ptr %38, null
  br i1 %39, label %40, label %43

40:                                               ; preds = %36
  %41 = load i32, ptr @zend_extension_flags, align 4, !tbaa !34
  %42 = or i32 %41, 16
  store i32 %42, ptr @zend_extension_flags, align 4, !tbaa !34
  br label %43

43:                                               ; preds = %40, %36
  call void @llvm.lifetime.end.p0(i64 208, ptr %5) #11
  ret void
}

; Function Attrs: nounwind uwtable
define dso_local ptr @zend_get_extension(ptr noundef %0) #0 {
  %2 = alloca ptr, align 8
  %3 = alloca ptr, align 8
  %4 = alloca ptr, align 8
  %5 = alloca ptr, align 8
  %6 = alloca i32, align 4
  store ptr %0, ptr %3, align 8, !tbaa !4
  call void @llvm.lifetime.start.p0(i64 8, ptr %4) #11
  %7 = load ptr, ptr @zend_extensions, align 8, !tbaa !26
  store ptr %7, ptr %4, align 8, !tbaa !30
  br label %8

8:                                                ; preds = %27, %1
  %9 = load ptr, ptr %4, align 8, !tbaa !30
  %10 = icmp ne ptr %9, null
  br i1 %10, label %11, label %31

11:                                               ; preds = %8
  call void @llvm.lifetime.start.p0(i64 8, ptr %5) #11
  %12 = load ptr, ptr %4, align 8, !tbaa !30
  %13 = getelementptr inbounds nuw %struct._zend_llist_element, ptr %12, i32 0, i32 2
  %14 = getelementptr inbounds [1 x i8], ptr %13, i64 0, i64 0
  store ptr %14, ptr %5, align 8, !tbaa !14
  %15 = load ptr, ptr %5, align 8, !tbaa !14
  %16 = getelementptr inbounds nuw %struct._zend_extension, ptr %15, i32 0, i32 0
  %17 = load ptr, ptr %16, align 8, !tbaa !21
  %18 = load ptr, ptr %3, align 8, !tbaa !4
  %19 = call i32 @strcmp(ptr noundef %17, ptr noundef %18) #12
  %20 = icmp ne i32 %19, 0
  br i1 %20, label %23, label %21

21:                                               ; preds = %11
  %22 = load ptr, ptr %5, align 8, !tbaa !14
  store ptr %22, ptr %2, align 8
  store i32 1, ptr %6, align 4
  br label %24

23:                                               ; preds = %11
  store i32 0, ptr %6, align 4
  br label %24

24:                                               ; preds = %23, %21
  call void @llvm.lifetime.end.p0(i64 8, ptr %5) #11
  %25 = load i32, ptr %6, align 4
  switch i32 %25, label %32 [
    i32 0, label %26
  ]

26:                                               ; preds = %24
  br label %27

27:                                               ; preds = %26
  %28 = load ptr, ptr %4, align 8, !tbaa !30
  %29 = getelementptr inbounds nuw %struct._zend_llist_element, ptr %28, i32 0, i32 0
  %30 = load ptr, ptr %29, align 8, !tbaa !31
  store ptr %30, ptr %4, align 8, !tbaa !30
  br label %8

31:                                               ; preds = %8
  store ptr null, ptr %2, align 8
  store i32 1, ptr %6, align 4
  br label %32

32:                                               ; preds = %31, %24
  call void @llvm.lifetime.end.p0(i64 8, ptr %4) #11
  %33 = load ptr, ptr %2, align 8
  ret ptr %33
}

; Function Attrs: nounwind uwtable
define dso_local i32 @zend_load_extension_handle(ptr noundef %0, ptr noundef %1) #0 {
  %3 = alloca i32, align 4
  %4 = alloca ptr, align 8
  %5 = alloca ptr, align 8
  %6 = alloca ptr, align 8
  %7 = alloca ptr, align 8
  %8 = alloca i32, align 4
  store ptr %0, ptr %4, align 8, !tbaa !9
  store ptr %1, ptr %5, align 8, !tbaa !4
  call void @llvm.lifetime.start.p0(i64 8, ptr %6) #11
  call void @llvm.lifetime.start.p0(i64 8, ptr %7) #11
  %9 = load ptr, ptr %4, align 8, !tbaa !9
  %10 = call ptr @dlsym(ptr noundef %9, ptr noundef @.str.1) #11
  store ptr %10, ptr %7, align 8, !tbaa !12
  %11 = load ptr, ptr %7, align 8, !tbaa !12
  %12 = icmp ne ptr %11, null
  br i1 %12, label %16, label %13

13:                                               ; preds = %2
  %14 = load ptr, ptr %4, align 8, !tbaa !9
  %15 = call ptr @dlsym(ptr noundef %14, ptr noundef @.str.2) #11
  store ptr %15, ptr %7, align 8, !tbaa !12
  br label %16

16:                                               ; preds = %13, %2
  %17 = load ptr, ptr %4, align 8, !tbaa !9
  %18 = call ptr @dlsym(ptr noundef %17, ptr noundef @.str.3) #11
  store ptr %18, ptr %6, align 8, !tbaa !14
  %19 = load ptr, ptr %6, align 8, !tbaa !14
  %20 = icmp ne ptr %19, null
  br i1 %20, label %24, label %21

21:                                               ; preds = %16
  %22 = load ptr, ptr %4, align 8, !tbaa !9
  %23 = call ptr @dlsym(ptr noundef %22, ptr noundef @.str.4) #11
  store ptr %23, ptr %6, align 8, !tbaa !14
  br label %24

24:                                               ; preds = %21, %16
  %25 = load ptr, ptr %7, align 8, !tbaa !12
  %26 = icmp ne ptr %25, null
  br i1 %26, label %27, label %30

27:                                               ; preds = %24
  %28 = load ptr, ptr %6, align 8, !tbaa !14
  %29 = icmp ne ptr %28, null
  br i1 %29, label %36, label %30

30:                                               ; preds = %27, %24
  %31 = load ptr, ptr @stderr, align 8, !tbaa !10
  %32 = load ptr, ptr %5, align 8, !tbaa !4
  %33 = call i32 (ptr, ptr, ...) @fprintf(ptr noundef %31, ptr noundef @.str.5, ptr noundef %32) #11
  %34 = load ptr, ptr %4, align 8, !tbaa !9
  %35 = call i32 @dlclose(ptr noundef %34) #11
  store i32 -1, ptr %3, align 4
  store i32 1, ptr %8, align 4
  br label %142

36:                                               ; preds = %27
  %37 = load ptr, ptr %7, align 8, !tbaa !12
  %38 = getelementptr inbounds nuw %struct._zend_extension_version_info, ptr %37, i32 0, i32 0
  %39 = load i32, ptr %38, align 8, !tbaa !16
  %40 = icmp ne i32 %39, 420240925
  br i1 %40, label %41, label %95

41:                                               ; preds = %36
  %42 = load ptr, ptr %6, align 8, !tbaa !14
  %43 = getelementptr inbounds nuw %struct._zend_extension, ptr %42, i32 0, i32 16
  %44 = load ptr, ptr %43, align 8, !tbaa !19
  %45 = icmp ne ptr %44, null
  br i1 %45, label %46, label %52

46:                                               ; preds = %41
  %47 = load ptr, ptr %6, align 8, !tbaa !14
  %48 = getelementptr inbounds nuw %struct._zend_extension, ptr %47, i32 0, i32 16
  %49 = load ptr, ptr %48, align 8, !tbaa !19
  %50 = call i32 %49(i32 noundef 420240925)
  %51 = icmp ne i32 %50, 0
  br i1 %51, label %52, label %95

52:                                               ; preds = %46, %41
  %53 = load ptr, ptr %7, align 8, !tbaa !12
  %54 = getelementptr inbounds nuw %struct._zend_extension_version_info, ptr %53, i32 0, i32 0
  %55 = load i32, ptr %54, align 8, !tbaa !16
  %56 = icmp sgt i32 %55, 420240925
  br i1 %56, label %57, label %68

57:                                               ; preds = %52
  %58 = load ptr, ptr @stderr, align 8, !tbaa !10
  %59 = load ptr, ptr %6, align 8, !tbaa !14
  %60 = getelementptr inbounds nuw %struct._zend_extension, ptr %59, i32 0, i32 0
  %61 = load ptr, ptr %60, align 8, !tbaa !21
  %62 = load ptr, ptr %7, align 8, !tbaa !12
  %63 = getelementptr inbounds nuw %struct._zend_extension_version_info, ptr %62, i32 0, i32 0
  %64 = load i32, ptr %63, align 8, !tbaa !16
  %65 = call i32 (ptr, ptr, ...) @fprintf(ptr noundef %58, ptr noundef @.str.6, ptr noundef %61, i32 noundef %64, i32 noundef 420240925) #11
  %66 = load ptr, ptr %4, align 8, !tbaa !9
  %67 = call i32 @dlclose(ptr noundef %66) #11
  store i32 -1, ptr %3, align 4
  store i32 1, ptr %8, align 4
  br label %142

68:                                               ; preds = %52
  %69 = load ptr, ptr %7, align 8, !tbaa !12
  %70 = getelementptr inbounds nuw %struct._zend_extension_version_info, ptr %69, i32 0, i32 0
  %71 = load i32, ptr %70, align 8, !tbaa !16
  %72 = icmp slt i32 %71, 420240925
  br i1 %72, label %73, label %93

73:                                               ; preds = %68
  %74 = load ptr, ptr @stderr, align 8, !tbaa !10
  %75 = load ptr, ptr %6, align 8, !tbaa !14
  %76 = getelementptr inbounds nuw %struct._zend_extension, ptr %75, i32 0, i32 0
  %77 = load ptr, ptr %76, align 8, !tbaa !21
  %78 = load ptr, ptr %7, align 8, !tbaa !12
  %79 = getelementptr inbounds nuw %struct._zend_extension_version_info, ptr %78, i32 0, i32 0
  %80 = load i32, ptr %79, align 8, !tbaa !16
  %81 = load ptr, ptr %6, align 8, !tbaa !14
  %82 = getelementptr inbounds nuw %struct._zend_extension, ptr %81, i32 0, i32 2
  %83 = load ptr, ptr %82, align 8, !tbaa !22
  %84 = load ptr, ptr %6, align 8, !tbaa !14
  %85 = getelementptr inbounds nuw %struct._zend_extension, ptr %84, i32 0, i32 3
  %86 = load ptr, ptr %85, align 8, !tbaa !23
  %87 = load ptr, ptr %6, align 8, !tbaa !14
  %88 = getelementptr inbounds nuw %struct._zend_extension, ptr %87, i32 0, i32 0
  %89 = load ptr, ptr %88, align 8, !tbaa !21
  %90 = call i32 (ptr, ptr, ...) @fprintf(ptr noundef %74, ptr noundef @.str.7, ptr noundef %77, i32 noundef %80, i32 noundef 420240925, ptr noundef %83, ptr noundef %86, ptr noundef %89) #11
  %91 = load ptr, ptr %4, align 8, !tbaa !9
  %92 = call i32 @dlclose(ptr noundef %91) #11
  store i32 -1, ptr %3, align 4
  store i32 1, ptr %8, align 4
  br label %142

93:                                               ; preds = %68
  br label %94

94:                                               ; preds = %93
  br label %139

95:                                               ; preds = %46, %36
  %96 = load ptr, ptr %7, align 8, !tbaa !12
  %97 = getelementptr inbounds nuw %struct._zend_extension_version_info, ptr %96, i32 0, i32 1
  %98 = load ptr, ptr %97, align 8, !tbaa !24
  %99 = call i32 @strcmp(ptr noundef @.str.8, ptr noundef %98) #12
  %100 = icmp ne i32 %99, 0
  br i1 %100, label %101, label %123

101:                                              ; preds = %95
  %102 = load ptr, ptr %6, align 8, !tbaa !14
  %103 = getelementptr inbounds nuw %struct._zend_extension, ptr %102, i32 0, i32 17
  %104 = load ptr, ptr %103, align 8, !tbaa !25
  %105 = icmp ne ptr %104, null
  br i1 %105, label %106, label %112

106:                                              ; preds = %101
  %107 = load ptr, ptr %6, align 8, !tbaa !14
  %108 = getelementptr inbounds nuw %struct._zend_extension, ptr %107, i32 0, i32 17
  %109 = load ptr, ptr %108, align 8, !tbaa !25
  %110 = call i32 %109(ptr noundef @.str.8)
  %111 = icmp ne i32 %110, 0
  br i1 %111, label %112, label %123

112:                                              ; preds = %106, %101
  %113 = load ptr, ptr @stderr, align 8, !tbaa !10
  %114 = load ptr, ptr %6, align 8, !tbaa !14
  %115 = getelementptr inbounds nuw %struct._zend_extension, ptr %114, i32 0, i32 0
  %116 = load ptr, ptr %115, align 8, !tbaa !21
  %117 = load ptr, ptr %7, align 8, !tbaa !12
  %118 = getelementptr inbounds nuw %struct._zend_extension_version_info, ptr %117, i32 0, i32 1
  %119 = load ptr, ptr %118, align 8, !tbaa !24
  %120 = call i32 (ptr, ptr, ...) @fprintf(ptr noundef %113, ptr noundef @.str.9, ptr noundef %116, ptr noundef %119, ptr noundef @.str.8) #11
  %121 = load ptr, ptr %4, align 8, !tbaa !9
  %122 = call i32 @dlclose(ptr noundef %121) #11
  store i32 -1, ptr %3, align 4
  store i32 1, ptr %8, align 4
  br label %142

123:                                              ; preds = %106, %95
  %124 = load ptr, ptr %6, align 8, !tbaa !14
  %125 = getelementptr inbounds nuw %struct._zend_extension, ptr %124, i32 0, i32 0
  %126 = load ptr, ptr %125, align 8, !tbaa !21
  %127 = call ptr @zend_get_extension(ptr noundef %126)
  %128 = icmp ne ptr %127, null
  br i1 %128, label %129, label %137

129:                                              ; preds = %123
  %130 = load ptr, ptr @stderr, align 8, !tbaa !10
  %131 = load ptr, ptr %6, align 8, !tbaa !14
  %132 = getelementptr inbounds nuw %struct._zend_extension, ptr %131, i32 0, i32 0
  %133 = load ptr, ptr %132, align 8, !tbaa !21
  %134 = call i32 (ptr, ptr, ...) @fprintf(ptr noundef %130, ptr noundef @.str.10, ptr noundef %133) #11
  %135 = load ptr, ptr %4, align 8, !tbaa !9
  %136 = call i32 @dlclose(ptr noundef %135) #11
  store i32 -1, ptr %3, align 4
  store i32 1, ptr %8, align 4
  br label %142

137:                                              ; preds = %123
  br label %138

138:                                              ; preds = %137
  br label %139

139:                                              ; preds = %138, %94
  %140 = load ptr, ptr %6, align 8, !tbaa !14
  %141 = load ptr, ptr %4, align 8, !tbaa !9
  call void @zend_register_extension(ptr noundef %140, ptr noundef %141)
  store i32 0, ptr %3, align 4
  store i32 1, ptr %8, align 4
  br label %142

142:                                              ; preds = %139, %129, %112, %73, %57, %30
  call void @llvm.lifetime.end.p0(i64 8, ptr %7) #11
  call void @llvm.lifetime.end.p0(i64 8, ptr %6) #11
  %143 = load i32, ptr %3, align 4
  ret i32 %143
}