; Function Attrs: nounwind uwtable
define dso_local range(i32 -1, 1) i32 @zend_load_extension_handle(ptr noundef %0, ptr noundef %1) local_unnamed_addr #0 {
  %3 = alloca %struct._zend_extension, align 8
  %4 = tail call ptr @dlsym(ptr noundef %0, ptr noundef nonnull @.str.1) #14
  %.not = icmp eq ptr %4, null
  br i1 %.not, label %5, label %7

5:                                                ; preds = %2
  %6 = tail call ptr @dlsym(ptr noundef %0, ptr noundef nonnull @.str.2) #14
  br label %7

7:                                                ; preds = %5, %2
  %.0 = phi ptr [ %4, %2 ], [ %6, %5 ]
  %8 = tail call ptr @dlsym(ptr noundef %0, ptr noundef nonnull @.str.3) #14
  %.not43 = icmp eq ptr %8, null
  br i1 %.not43, label %9, label %11

9:                                                ; preds = %7
  %10 = tail call ptr @dlsym(ptr noundef %0, ptr noundef nonnull @.str.4) #14
  br label %11

11:                                               ; preds = %9, %7
  %.036 = phi ptr [ %8, %7 ], [ %10, %9 ]
  %12 = icmp ne ptr %.0, null
  %13 = icmp ne ptr %.036, null
  %or.cond = select i1 %12, i1 %13, i1 false
  br i1 %or.cond, label %18, label %14

14:                                               ; preds = %11
  %15 = load ptr, ptr @stderr, align 8, !tbaa !4
  %16 = tail call i32 (ptr, ptr, ...) @fprintf(ptr noundef %15, ptr noundef nonnull @.str.5, ptr noundef %1) #15
  %17 = tail call i32 @dlclose(ptr noundef %0) #14
  br label %98

18:                                               ; preds = %11
  %19 = load i32, ptr %.0, align 8, !tbaa !9
  %.not44 = icmp eq i32 %19, 420240925
  br i1 %.not44, label %43, label %20

20:                                               ; preds = %18
  %21 = getelementptr inbounds nuw i8, ptr %.036, i64 128
  %22 = load ptr, ptr %21, align 8, !tbaa !13
  %.not45 = icmp eq ptr %22, null
  br i1 %.not45, label %25, label %23

23:                                               ; preds = %20
  %24 = tail call i32 %22(i32 noundef 420240925) #14
  %.not46 = icmp eq i32 %24, 0
  br i1 %.not46, label %43, label %._crit_edge

._crit_edge:                                      ; preds = %23
  %.pre = load i32, ptr %.0, align 8, !tbaa !9
  br label %25

25:                                               ; preds = %._crit_edge, %20
  %26 = phi i32 [ %.pre, %._crit_edge ], [ %19, %20 ]
  %27 = icmp sgt i32 %26, 420240925
  br i1 %27, label %28, label %33

28:                                               ; preds = %25
  %29 = load ptr, ptr @stderr, align 8, !tbaa !4
  %30 = load ptr, ptr %.036, align 8, !tbaa !15
  %31 = tail call i32 (ptr, ptr, ...) @fprintf(ptr noundef %29, ptr noundef nonnull @.str.6, ptr noundef %30, i32 noundef %26, i32 noundef 420240925) #15
  %32 = tail call i32 @dlclose(ptr noundef %0) #14
  br label %98

33:                                               ; preds = %25
  %.not51 = icmp eq i32 %26, 420240925
  br i1 %.not51, label %zend_get_extension.exit.thread, label %34

34:                                               ; preds = %33
  %35 = load ptr, ptr @stderr, align 8, !tbaa !4
  %36 = load ptr, ptr %.036, align 8, !tbaa !15
  %37 = getelementptr inbounds nuw i8, ptr %.036, i64 16
  %38 = load ptr, ptr %37, align 8, !tbaa !16
  %39 = getelementptr inbounds nuw i8, ptr %.036, i64 24
  %40 = load ptr, ptr %39, align 8, !tbaa !17
  %41 = tail call i32 (ptr, ptr, ...) @fprintf(ptr noundef %35, ptr noundef nonnull @.str.7, ptr noundef %36, i32 noundef %26, i32 noundef 420240925, ptr noundef %38, ptr noundef %40, ptr noundef %36) #15
  %42 = tail call i32 @dlclose(ptr noundef %0) #14
  br label %98

43:                                               ; preds = %23, %18
  %44 = getelementptr inbounds nuw i8, ptr %.0, i64 8
  %45 = load ptr, ptr %44, align 8, !tbaa !18
  %46 = tail call i32 @strcmp(ptr noundef nonnull dereferenceable(17) @.str.8, ptr noundef nonnull dereferenceable(1) %45) #16
  %.not47 = icmp eq i32 %46, 0
  br i1 %.not47, label %58, label %47

47:                                               ; preds = %43
  %48 = getelementptr inbounds nuw i8, ptr %.036, i64 136
  %49 = load ptr, ptr %48, align 8, !tbaa !19
  %.not48 = icmp eq ptr %49, null
  br i1 %.not48, label %52, label %50

50:                                               ; preds = %47
  %51 = tail call i32 %49(ptr noundef nonnull @.str.8) #14
  %.not49 = icmp eq i32 %51, 0
  br i1 %.not49, label %58, label %._crit_edge55

._crit_edge55:                                    ; preds = %50
  %.pre56 = load ptr, ptr %44, align 8, !tbaa !18
  br label %52

52:                                               ; preds = %._crit_edge55, %47
  %53 = phi ptr [ %.pre56, %._crit_edge55 ], [ %45, %47 ]
  %54 = load ptr, ptr @stderr, align 8, !tbaa !4
  %55 = load ptr, ptr %.036, align 8, !tbaa !15
  %56 = tail call i32 (ptr, ptr, ...) @fprintf(ptr noundef %54, ptr noundef nonnull @.str.9, ptr noundef %55, ptr noundef %53, ptr noundef nonnull @.str.8) #15
  %57 = tail call i32 @dlclose(ptr noundef %0) #14
  br label %98

58:                                               ; preds = %50, %43
  %59 = load ptr, ptr %.036, align 8, !tbaa !15
  br label %60

60:                                               ; preds = %61, %58
  %.08.in.i = phi ptr [ @zend_extensions, %58 ], [ %.08.i, %61 ]
  %.08.i = load ptr, ptr %.08.in.i, align 8, !tbaa !20
  %.not.i = icmp eq ptr %.08.i, null
  br i1 %.not.i, label %zend_get_extension.exit.thread, label %61

61:                                               ; preds = %60
  %62 = getelementptr inbounds nuw i8, ptr %.08.i, i64 16
  %63 = load ptr, ptr %62, align 8, !tbaa !15
  %64 = tail call i32 @strcmp(ptr noundef nonnull dereferenceable(1) %63, ptr noundef nonnull readonly dereferenceable(1) %59) #16
  %.not9.not.i = icmp eq i32 %64, 0
  br i1 %.not9.not.i, label %zend_get_extension.exit, label %60

zend_get_extension.exit:                          ; preds = %61
  %65 = load ptr, ptr @stderr, align 8, !tbaa !4
  %66 = tail call i32 (ptr, ptr, ...) @fprintf(ptr noundef %65, ptr noundef nonnull @.str.10, ptr noundef nonnull %59) #15
  %67 = tail call i32 @dlclose(ptr noundef %0) #14
  br label %98

zend_get_extension.exit.thread:                   ; preds = %60, %33
  call void @llvm.lifetime.start.p0(i64 208, ptr nonnull %3) #14
  call void @llvm.memcpy.p0.p0.i64(ptr noundef nonnull align 8 dereferenceable(208) %3, ptr noundef nonnull readonly align 8 dereferenceable(208) %.036, i64 208, i1 false), !tbaa.struct !22
  %68 = getelementptr inbounds nuw i8, ptr %3, i64 192
  store ptr %0, ptr %68, align 8, !tbaa !26
  call void (ptr, ptr, i32, ...) @zend_llist_apply_with_arguments(ptr noundef nonnull @zend_extensions, ptr noundef nonnull @zend_extension_message_dispatcher, i32 noundef 2, i32 noundef 1, ptr noundef nonnull %3) #14
  call void @zend_llist_add_element(ptr noundef nonnull @zend_extensions, ptr noundef nonnull %3) #14
  %69 = getelementptr inbounds nuw i8, ptr %3, i64 112
  %70 = load ptr, ptr %69, align 8, !tbaa !27
  %.not.i52 = icmp eq ptr %70, null
  br i1 %.not.i52, label %74, label %71

71:                                               ; preds = %zend_get_extension.exit.thread
  %72 = load i32, ptr @zend_extension_flags, align 4, !tbaa !25
  %73 = or i32 %72, 1
  store i32 %73, ptr @zend_extension_flags, align 4, !tbaa !25
  br label %74

74:                                               ; preds = %71, %zend_get_extension.exit.thread
  %75 = getelementptr inbounds nuw i8, ptr %3, i64 120
  %76 = load ptr, ptr %75, align 8, !tbaa !28
  %.not2.i = icmp eq ptr %76, null
  br i1 %.not2.i, label %80, label %77

77:                                               ; preds = %74
  %78 = load i32, ptr @zend_extension_flags, align 4, !tbaa !25
  %79 = or i32 %78, 2
  store i32 %79, ptr @zend_extension_flags, align 4, !tbaa !25
  br label %80

80:                                               ; preds = %77, %74
  %81 = getelementptr inbounds nuw i8, ptr %3, i64 80
  %82 = load ptr, ptr %81, align 8, !tbaa !29
  %.not3.i = icmp eq ptr %82, null
  br i1 %.not3.i, label %86, label %83

83:                                               ; preds = %80
  %84 = load i32, ptr @zend_extension_flags, align 4, !tbaa !25
  %85 = or i32 %84, 4
  store i32 %85, ptr @zend_extension_flags, align 4, !tbaa !25
  br label %86

86:                                               ; preds = %83, %80
  %87 = getelementptr inbounds nuw i8, ptr %3, i64 144
  %88 = load ptr, ptr %87, align 8, !tbaa !30
  %.not4.i = icmp eq ptr %88, null
  br i1 %.not4.i, label %92, label %89

89:                                               ; preds = %86
  %90 = load i32, ptr @zend_extension_flags, align 4, !tbaa !25
  %91 = or i32 %90, 8
  store i32 %91, ptr @zend_extension_flags, align 4, !tbaa !25
  br label %92

92:                                               ; preds = %89, %86
  %93 = getelementptr inbounds nuw i8, ptr %3, i64 152
  %94 = load ptr, ptr %93, align 8, !tbaa !31
  %.not5.i = icmp eq ptr %94, null
  br i1 %.not5.i, label %zend_register_extension.exit, label %95

95:                                               ; preds = %92
  %96 = load i32, ptr @zend_extension_flags, align 4, !tbaa !25
  %97 = or i32 %96, 16
  store i32 %97, ptr @zend_extension_flags, align 4, !tbaa !25
  br label %zend_register_extension.exit

zend_register_extension.exit:                     ; preds = %92, %95
  call void @llvm.lifetime.end.p0(i64 208, ptr nonnull %3) #14
  br label %98

98:                                               ; preds = %zend_register_extension.exit, %zend_get_extension.exit, %52, %34, %28, %14
  %.037 = phi i32 [ -1, %28 ], [ -1, %34 ], [ 0, %zend_register_extension.exit ], [ -1, %52 ], [ -1, %zend_get_extension.exit ], [ -1, %14 ]
  ret i32 %.037
}